ccollections
OrderedDict
p1
((lp2
(lp3
S'tag_scheme'
p4
aS'iob'
p5
aa(lp6
S'lower'
p7
aI00
aa(lp8
S'zeros'
p9
aI00
aa(lp10
S'char_dim'
p11
aI25
aa(lp12
S'char_lstm_dim'
p13
aI25
aa(lp14
S'char_bidirect'
p15
aI01
aa(lp16
S'word_dim'
p17
aI100
aa(lp18
S'word_lstm_dim'
p19
aI100
aa(lp20
S'word_bidirect'
p21
aI01
aa(lp22
S'pre_emb'
p23
aS'dataset/COW_GermEval.lower.vec'
p24
aa(lp25
S'all_emb'
p26
aI00
aa(lp27
S'cap_dim'
p28
aI0
aa(lp29
S'crf'
p30
aI01
aa(lp31
S'dropout'
p32
aF0.5
aa(lp33
S'lr_method'
p34
aS'sgd-lr_.005'
p35
aa(lp36
S'train'
p37
aS'dataset/BIOfidv1/BioFID_NER_training_2_29.01/train.BioFID_NE_29.01.conll'
p38
aa(lp39
S'dev'
p40
aS'dataset/BIOfidv1/BioFID_NER_training_2_29.01/dev.BioFID_NE_29.01.conll'
p41
aa(lp42
S'test'
p43
aS'dataset/BIOfidv1/BioFID_NER_training_2_29.01/test.BioFID_NE_29.01.conll'
p44
aatRp45
.